; ModuleID = '47/340.c'
source_filename = "47/340.c"
target datalayout = "e-m:e-p270:32:32-p271:32:32-p272:64:64-i64:64-f80:128-n8:16:32:64-S128"
target triple = "x86_64-pc-linux-gnu"

@.str = private unnamed_addr constant [3 x i8] c"%d\00", align 1
@.str.1 = private unnamed_addr constant [4 x i8] c"%d \00", align 1

; Function Attrs: noinline nounwind uwtable
define dso_local i32 @main() #0 {
  %1 = alloca i32, align 4
  %2 = alloca i32, align 4
  %3 = alloca i32, align 4
  %4 = alloca i32, align 4
  %5 = alloca i32, align 4
  %6 = alloca [100 x i32], align 16
  %7 = alloca i32, align 4
  store i32 0, i32* %1, align 4
  %8 = call i32 (i8*, ...) @__isoc99_scanf(i8* getelementptr inbounds ([3 x i8], [3 x i8]* @.str, i64 0, i64 0), i32* %2)
  store i32 0, i32* %3, align 4
  br label %9

9:                                                ; preds = %19, %0
  %10 = load i32, i32* %3, align 4
  %11 = load i32, i32* %2, align 4
  %12 = sub nsw i32 %11, 1
  %13 = icmp slt i32 %10, %12
  br i1 %13, label %14, label %22

14:                                               ; preds = %9
  %15 = load i32, i32* %3, align 4
  %16 = sext i32 %15 to i64
  %17 = getelementptr inbounds [100 x i32], [100 x i32]* %6, i64 0, i64 %16
  %18 = call i32 (i8*, ...) @__isoc99_scanf(i8* getelementptr inbounds ([4 x i8], [4 x i8]* @.str.1, i64 0, i64 0), i32* %17)
  br label %19

19:                                               ; preds = %14
  %20 = load i32, i32* %3, align 4
  %21 = add nsw i32 %20, 1
  store i32 %21, i32* %3, align 4
  br label %9

22:                                               ; preds = %9
  %23 = load i32, i32* %2, align 4
  %24 = sub nsw i32 %23, 1
  store i32 %24, i32* %3, align 4
  %25 = icmp ne i32 %24, 0
  br i1 %25, label %26, label %31

26:                                               ; preds = %22
  %27 = load i32, i32* %3, align 4
  %28 = sext i32 %27 to i64
  %29 = getelementptr inbounds [100 x i32], [100 x i32]* %6, i64 0, i64 %28
  %30 = call i32 (i8*, ...) @__isoc99_scanf(i8* getelementptr inbounds ([3 x i8], [3 x i8]* @.str, i64 0, i64 0), i32* %29)
  br label %31

31:                                               ; preds = %26, %22
  store i32 1, i32* %4, align 4
  br label %32

32:                                               ; preds = %60, %31
  %33 = load i32, i32* %4, align 4
  %34 = load i32, i32* %2, align 4
  %35 = sdiv i32 %34, 2
  %36 = add nsw i32 %35, 1
  %37 = icmp slt i32 %33, %36
  br i1 %37, label %38, label %63

38:                                               ; preds = %32
  %39 = load i32, i32* %2, align 4
  %40 = load i32, i32* %4, align 4
  %41 = sub nsw i32 %39, %40
  %42 = sext i32 %41 to i64
  %43 = getelementptr inbounds [100 x i32], [100 x i32]* %6, i64 0, i64 %42
  %44 = load i32, i32* %43, align 4
  store i32 %44, i32* %7, align 4
  %45 = load i32, i32* %4, align 4
  %46 = sub nsw i32 %45, 1
  %47 = sext i32 %46 to i64
  %48 = getelementptr inbounds [100 x i32], [100 x i32]* %6, i64 0, i64 %47
  %49 = load i32, i32* %48, align 4
  %50 = load i32, i32* %2, align 4
  %51 = load i32, i32* %4, align 4
  %52 = sub nsw i32 %50, %51
  %53 = sext i32 %52 to i64
  %54 = getelementptr inbounds [100 x i32], [100 x i32]* %6, i64 0, i64 %53
  store i32 %49, i32* %54, align 4
  %55 = load i32, i32* %7, align 4
  %56 = load i32, i32* %4, align 4
  %57 = sub nsw i32 %56, 1
  %58 = sext i32 %57 to i64
  %59 = getelementptr inbounds [100 x i32], [100 x i32]* %6, i64 0, i64 %58
  store i32 %55, i32* %59, align 4
  br label %60

60:                                               ; preds = %38
  %61 = load i32, i32* %4, align 4
  %62 = add nsw i32 %61, 1
  store i32 %62, i32* %4, align 4
  br label %32

63:                                               ; preds = %32
  store i32 0, i32* %5, align 4
  br label %64

64:                                               ; preds = %75, %63
  %65 = load i32, i32* %5, align 4
  %66 = load i32, i32* %2, align 4
  %67 = sub nsw i32 %66, 1
  %68 = icmp slt i32 %65, %67
  br i1 %68, label %69, label %78

69:                                               ; preds = %64
  %70 = load i32, i32* %5, align 4
  %71 = sext i32 %70 to i64
  %72 = getelementptr inbounds [100 x i32], [100 x i32]* %6, i64 0, i64 %71
  %73 = load i32, i32* %72, align 4
  %74 = call i32 (i8*, ...) @printf(i8* getelementptr inbounds ([4 x i8], [4 x i8]* @.str.1, i64 0, i64 0), i32 %73)
  br label %75

75:                                               ; preds = %69
  %76 = load i32, i32* %5, align 4
  %77 = add nsw i32 %76, 1
  store i32 %77, i32* %5, align 4
  br label %64

78:                                               ; preds = %64
  %79 = load i32, i32* %2, align 4
  %80 = sub nsw i32 %79, 1
  store i32 %80, i32* %5, align 4
  %81 = icmp ne i32 %80, 0
  br i1 %81, label %82, label %88

82:                                               ; preds = %78
  %83 = load i32, i32* %5, align 4
  %84 = sext i32 %83 to i64
  %85 = getelementptr inbounds [100 x i32], [100 x i32]* %6, i64 0, i64 %84
  %86 = load i32, i32* %85, align 4
  %87 = call i32 (i8*, ...) @printf(i8* getelementptr inbounds ([3 x i8], [3 x i8]* @.str, i64 0, i64 0), i32 %86)
  br label %88

88:                                               ; preds = %82, %78
  ret i32 0
}

declare dso_local i32 @__isoc99_scanf(i8*, ...) #1

declare dso_local i32 @printf(i8*, ...) #1


!llvm.module.flags = !{!0}
!llvm.ident = !{!1}

!0 = !{i32 1, !"wchar_size", i32 4}
!1 = !{!"clang version 10.0.0-4ubuntu1 "}
