; ModuleID = 'source-C-CXX/46/340.c'
source_filename = "source-C-CXX/46/340.c"
target datalayout = "e-m:e-p270:32:32-p271:32:32-p272:64:64-i64:64-f80:128-n8:16:32:64-S128"
target triple = "x86_64-pc-linux-gnu"

@.str = private unnamed_addr constant [3 x i8] c"%d\00", align 1
@.str.1 = private unnamed_addr constant [4 x i8] c"%d \00", align 1

; Function Attrs: nofree nounwind sspstrong uwtable
define dso_local i32 @main() local_unnamed_addr #0 {
  %1 = alloca i32, align 4
  %2 = alloca [100 x i32], align 16
  %3 = bitcast i32* %1 to i8*
  call void @llvm.lifetime.start.p0i8(i64 4, i8* nonnull %3) #3
  %4 = call i32 (i8*, ...) @__isoc99_scanf(i8* getelementptr inbounds ([3 x i8], [3 x i8]* @.str, i64 0, i64 0), i32* nonnull %1)
  %5 = bitcast [100 x i32]* %2 to i8*
  call void @llvm.lifetime.start.p0i8(i64 400, i8* nonnull %5) #3
  %6 = load i32, i32* %1, align 4, !tbaa !5
  %7 = add nsw i32 %6, -1
  %8 = icmp sgt i32 %6, 1
  br i1 %8, label %9, label %18

9:                                                ; preds = %0, %9
  %10 = phi i64 [ %13, %9 ], [ 0, %0 ]
  %11 = getelementptr inbounds [100 x i32], [100 x i32]* %2, i64 0, i64 %10
  %12 = call i32 (i8*, ...) @__isoc99_scanf(i8* getelementptr inbounds ([4 x i8], [4 x i8]* @.str.1, i64 0, i64 0), i32* nonnull %11)
  %13 = add nuw nsw i64 %10, 1
  %14 = load i32, i32* %1, align 4, !tbaa !5
  %15 = add nsw i32 %14, -1
  %16 = sext i32 %15 to i64
  %17 = icmp slt i64 %13, %16
  br i1 %17, label %9, label %18, !llvm.loop !9

18:                                               ; preds = %9, %0
  %19 = phi i32 [ %6, %0 ], [ %14, %9 ]
  %20 = phi i32 [ %7, %0 ], [ %15, %9 ]
  %21 = icmp eq i32 %20, 0
  br i1 %21, label %27, label %22

22:                                               ; preds = %18
  %23 = sext i32 %20 to i64
  %24 = getelementptr inbounds [100 x i32], [100 x i32]* %2, i64 0, i64 %23
  %25 = call i32 (i8*, ...) @__isoc99_scanf(i8* getelementptr inbounds ([3 x i8], [3 x i8]* @.str, i64 0, i64 0), i32* nonnull %24)
  %26 = load i32, i32* %1, align 4, !tbaa !5
  br label %27

27:                                               ; preds = %22, %18
  %28 = phi i32 [ %26, %22 ], [ %19, %18 ]
  %29 = icmp slt i32 %28, 2
  br i1 %29, label %30, label %32

30:                                               ; preds = %27
  %31 = add nsw i32 %28, -1
  br label %81

32:                                               ; preds = %27
  %33 = lshr i32 %28, 1
  %34 = zext i32 %28 to i64
  %35 = zext i32 %33 to i64
  %36 = and i64 %35, 1
  %37 = icmp eq i32 %33, 1
  br i1 %37, label %40, label %38

38:                                               ; preds = %32
  %39 = and i64 %35, 2147483646
  br label %53

40:                                               ; preds = %53, %32
  %41 = phi i64 [ 1, %32 ], [ %68, %53 ]
  %42 = icmp eq i64 %36, 0
  br i1 %42, label %50, label %43

43:                                               ; preds = %40
  %44 = sub nsw i64 %34, %41
  %45 = getelementptr inbounds [100 x i32], [100 x i32]* %2, i64 0, i64 %44
  %46 = load i32, i32* %45, align 4, !tbaa !5
  %47 = add nsw i64 %41, -1
  %48 = getelementptr inbounds [100 x i32], [100 x i32]* %2, i64 0, i64 %47
  %49 = load i32, i32* %48, align 4, !tbaa !5
  store i32 %49, i32* %45, align 4, !tbaa !5
  store i32 %46, i32* %48, align 4, !tbaa !5
  br label %50

50:                                               ; preds = %40, %43
  %51 = add nsw i32 %28, -1
  %52 = icmp sgt i32 %28, 1
  br i1 %52, label %71, label %81

53:                                               ; preds = %53, %38
  %54 = phi i64 [ 1, %38 ], [ %68, %53 ]
  %55 = phi i64 [ %39, %38 ], [ %69, %53 ]
  %56 = sub nsw i64 %34, %54
  %57 = getelementptr inbounds [100 x i32], [100 x i32]* %2, i64 0, i64 %56
  %58 = load i32, i32* %57, align 4, !tbaa !5
  %59 = add nsw i64 %54, -1
  %60 = getelementptr inbounds [100 x i32], [100 x i32]* %2, i64 0, i64 %59
  %61 = load i32, i32* %60, align 4, !tbaa !5
  store i32 %61, i32* %57, align 4, !tbaa !5
  store i32 %58, i32* %60, align 4, !tbaa !5
  %62 = xor i64 %54, -1
  %63 = add nsw i64 %62, %34
  %64 = getelementptr inbounds [100 x i32], [100 x i32]* %2, i64 0, i64 %63
  %65 = load i32, i32* %64, align 4, !tbaa !5
  %66 = getelementptr inbounds [100 x i32], [100 x i32]* %2, i64 0, i64 %54
  %67 = load i32, i32* %66, align 4, !tbaa !5
  store i32 %67, i32* %64, align 4, !tbaa !5
  store i32 %65, i32* %66, align 4, !tbaa !5
  %68 = add nuw nsw i64 %54, 2
  %69 = add i64 %55, -2
  %70 = icmp eq i64 %69, 0
  br i1 %70, label %40, label %53, !llvm.loop !11

71:                                               ; preds = %50, %71
  %72 = phi i64 [ %76, %71 ], [ 0, %50 ]
  %73 = getelementptr inbounds [100 x i32], [100 x i32]* %2, i64 0, i64 %72
  %74 = load i32, i32* %73, align 4, !tbaa !5
  %75 = call i32 (i8*, ...) @printf(i8* nonnull dereferenceable(1) getelementptr inbounds ([4 x i8], [4 x i8]* @.str.1, i64 0, i64 0), i32 %74)
  %76 = add nuw nsw i64 %72, 1
  %77 = load i32, i32* %1, align 4, !tbaa !5
  %78 = add nsw i32 %77, -1
  %79 = sext i32 %78 to i64
  %80 = icmp slt i64 %76, %79
  br i1 %80, label %71, label %81, !llvm.loop !12

81:                                               ; preds = %71, %30, %50
  %82 = phi i32 [ %51, %50 ], [ %31, %30 ], [ %78, %71 ]
  %83 = icmp eq i32 %82, 0
  br i1 %83, label %89, label %84

84:                                               ; preds = %81
  %85 = sext i32 %82 to i64
  %86 = getelementptr inbounds [100 x i32], [100 x i32]* %2, i64 0, i64 %85
  %87 = load i32, i32* %86, align 4, !tbaa !5
  %88 = call i32 (i8*, ...) @printf(i8* nonnull dereferenceable(1) getelementptr inbounds ([3 x i8], [3 x i8]* @.str, i64 0, i64 0), i32 %87)
  br label %89

89:                                               ; preds = %84, %81
  call void @llvm.lifetime.end.p0i8(i64 400, i8* nonnull %5) #3
  call void @llvm.lifetime.end.p0i8(i64 4, i8* nonnull %3) #3
  ret i32 0
}

; Function Attrs: argmemonly mustprogress nofree nosync nounwind willreturn
declare void @llvm.lifetime.start.p0i8(i64 immarg, i8* nocapture) #1

; Function Attrs: nofree nounwind
declare noundef i32 @__isoc99_scanf(i8* nocapture noundef readonly, ...) local_unnamed_addr #2

; Function Attrs: nofree nounwind
declare noundef i32 @printf(i8* nocapture noundef readonly, ...) local_unnamed_addr #2

; Function Attrs: argmemonly mustprogress nofree nosync nounwind willreturn
declare void @llvm.lifetime.end.p0i8(i64 immarg, i8* nocapture) #1


!llvm.module.flags = !{!0, !1, !2, !3}
!llvm.ident = !{!4}

!0 = !{i32 1, !"wchar_size", i32 4}
!1 = !{i32 7, !"PIC Level", i32 2}
!2 = !{i32 7, !"PIE Level", i32 2}
!3 = !{i32 7, !"uwtable", i32 1}
!4 = !{!"clang version 13.0.0"}
!5 = !{!6, !6, i64 0}
!6 = !{!"int", !7, i64 0}
!7 = !{!"omnipotent char", !8, i64 0}
!8 = !{!"Simple C/C++ TBAA"}
!9 = distinct !{!9, !10}
!10 = !{!"llvm.loop.mustprogress"}
!11 = distinct !{!11, !10}
!12 = distinct !{!12, !10}
